; Function Attrs: mustprogress uwtable
define void @text_window_append(ptr noundef readonly %0, ptr noundef %1) local_unnamed_addr #2 personality ptr @__gxx_personality_v0 {
  %3 = alloca %class.QString, align 16
  %4 = alloca %class.QString, align 16
  %.not = icmp eq ptr %0, null
  br i1 %.not, label %_ZN7QStringD2Ev.exit, label %5

5:                                                ; preds = %2
  %6 = load ptr, ptr %0, align 8
  call void @llvm.lifetime.start.p0(i64 24, ptr nonnull %3)
  %.not.i.i = icmp eq ptr %1, null
  br i1 %.not.i.i, label %_ZN7QStringC2EPKc.exit, label %.split.i.i

.split.i.i:                                       ; preds = %5
  %7 = tail call noundef i64 @strlen(ptr noundef nonnull dereferenceable(1) %1) #22
  br label %_ZN7QStringC2EPKc.exit

_ZN7QStringC2EPKc.exit:                           ; preds = %5, %.split.i.i
  %.sink5.i.i = phi i64 [ %7, %.split.i.i ], [ 0, %5 ]
  call void @_ZN7QString8fromUtf8E14QByteArrayView(ptr dead_on_unwind nonnull writable sret(%class.QString) align 8 %3, i64 %.sink5.i.i, ptr %1)
  %8 = load <2 x ptr>, ptr %3, align 16
  store <2 x ptr> %8, ptr %4, align 16
  %9 = getelementptr inbounds i8, ptr %4, i64 16
  %10 = getelementptr inbounds i8, ptr %3, i64 16
  %11 = load i64, ptr %10, align 16
  store i64 %11, ptr %9, align 16
  call void @llvm.lifetime.end.p0(i64 24, ptr nonnull %3)
  %12 = getelementptr inbounds i8, ptr %6, i64 64
  %13 = load ptr, ptr %12, align 8
  %14 = getelementptr inbounds i8, ptr %13, i64 8
  %15 = load ptr, ptr %14, align 8
  invoke void @_ZN9QTextEdit10moveCursorEN11QTextCursor13MoveOperationENS0_8MoveModeE(ptr noundef nonnull align 8 dereferenceable(40) %15, i32 noundef 11, i32 noundef 0)
          to label %.noexc unwind label %23

.noexc:                                           ; preds = %_ZN7QStringC2EPKc.exit
  %16 = load ptr, ptr %12, align 8
  %17 = getelementptr inbounds i8, ptr %16, i64 8
  %18 = load ptr, ptr %17, align 8
  invoke void @_ZN9QTextEdit15insertPlainTextERK7QString(ptr noundef nonnull align 8 dereferenceable(40) %18, ptr noundef nonnull align 8 dereferenceable(24) %4)
          to label %_ZN16FunnelTextDialog10appendTextE7QString.exit unwind label %23

_ZN16FunnelTextDialog10appendTextE7QString.exit:  ; preds = %.noexc
  %19 = load ptr, ptr %4, align 16
  %.not.i.i.i = icmp eq ptr %19, null
  br i1 %.not.i.i.i, label %_ZN7QStringD2Ev.exit, label %_ZN17QArrayDataPointerIDsE5derefEv.exit.i.i

_ZN17QArrayDataPointerIDsE5derefEv.exit.i.i:      ; preds = %_ZN16FunnelTextDialog10appendTextE7QString.exit
  %20 = atomicrmw sub ptr %19, i32 1 seq_cst, align 4
  %.not.i.i5 = icmp eq i32 %20, 1
  br i1 %.not.i.i5, label %21, label %_ZN7QStringD2Ev.exit

21:                                               ; preds = %_ZN17QArrayDataPointerIDsE5derefEv.exit.i.i
  %22 = load ptr, ptr %4, align 16
  call void @_ZN10QArrayData10deallocateEPS_xx(ptr noundef %22, i64 noundef 2, i64 noundef 8) #22
  br label %_ZN7QStringD2Ev.exit

23:                                               ; preds = %.noexc, %_ZN7QStringC2EPKc.exit
  %24 = landingpad { ptr, i32 }
          cleanup
  %25 = load ptr, ptr %4, align 16
  %.not.i.i.i6 = icmp eq ptr %25, null
  br i1 %.not.i.i.i6, label %_ZN7QStringD2Ev.exit9, label %_ZN17QArrayDataPointerIDsE5derefEv.exit.i.i7

_ZN17QArrayDataPointerIDsE5derefEv.exit.i.i7:     ; preds = %23
  %26 = atomicrmw sub ptr %25, i32 1 seq_cst, align 4
  %.not.i.i8 = icmp eq i32 %26, 1
  br i1 %.not.i.i8, label %27, label %_ZN7QStringD2Ev.exit9

27:                                               ; preds = %_ZN17QArrayDataPointerIDsE5derefEv.exit.i.i7
  %28 = load ptr, ptr %4, align 16
  call void @_ZN10QArrayData10deallocateEPS_xx(ptr noundef %28, i64 noundef 2, i64 noundef 8) #22
  br label %_ZN7QStringD2Ev.exit9

_ZN7QStringD2Ev.exit9:                            ; preds = %23, %_ZN17QArrayDataPointerIDsE5derefEv.exit.i.i7, %27
  resume { ptr, i32 } %24

_ZN7QStringD2Ev.exit:                             ; preds = %21, %_ZN17QArrayDataPointerIDsE5derefEv.exit.i.i, %_ZN16FunnelTextDialog10appendTextE7QString.exit, %2
  ret void
}